target datalayout = "e-m:e-p270:32:32-p271:32:32-p272:64:64-i64:64-i128:128-f80:128-n8:16:32:64-S128"
target triple = "x86_64-pc-linux-gnu"

%struct.Kit_DsdNtk_t_ = type { i16, i16, i16, i16, ptr, ptr, ptr }
%struct.Kit_DsdObj_t_ = type { i32, [0 x i16] }

; Function Attrs: inlinehint nounwind uwtable
define internal i32 @Abc_LitNot(i32 noundef %0) #4 {
  %2 = alloca i32, align 4
  store i32 %0, ptr %2, align 4, !tbaa !3
  %3 = load i32, ptr %2, align 4, !tbaa !3
  %4 = xor i32 %3, 1
  ret i32 %4
}

; Function Attrs: inlinehint nounwind uwtable
define internal i32 @Abc_LitIsCompl(i32 noundef %0) #4 {
  %2 = alloca i32, align 4
  store i32 %0, ptr %2, align 4, !tbaa !3
  %3 = load i32, ptr %2, align 4, !tbaa !3
  %4 = and i32 %3, 1
  ret i32 %4
}

; Function Attrs: inlinehint nounwind uwtable
define internal ptr @Kit_DsdNtkObj(ptr noundef %0, i32 noundef %1) #4 {
  %3 = alloca ptr, align 8
  %4 = alloca i32, align 4
  store ptr %0, ptr %3, align 8, !tbaa !37
  store i32 %1, ptr %4, align 4, !tbaa !3
  %5 = load i32, ptr %4, align 4, !tbaa !3
  %6 = load ptr, ptr %3, align 8, !tbaa !37
  %7 = getelementptr inbounds nuw %struct.Kit_DsdNtk_t_, ptr %6, i32 0, i32 0
  %8 = load i16, ptr %7, align 8, !tbaa !41
  %9 = zext i16 %8 to i32
  %10 = icmp slt i32 %5, %9
  br i1 %10, label %11, label %12

11:                                               ; preds = %2
  br label %25

12:                                               ; preds = %2
  %13 = load ptr, ptr %3, align 8, !tbaa !37
  %14 = getelementptr inbounds nuw %struct.Kit_DsdNtk_t_, ptr %13, i32 0, i32 6
  %15 = load ptr, ptr %14, align 8, !tbaa !47
  %16 = load i32, ptr %4, align 4, !tbaa !3
  %17 = load ptr, ptr %3, align 8, !tbaa !37
  %18 = getelementptr inbounds nuw %struct.Kit_DsdNtk_t_, ptr %17, i32 0, i32 0
  %19 = load i16, ptr %18, align 8, !tbaa !41
  %20 = zext i16 %19 to i32
  %21 = sub nsw i32 %16, %20
  %22 = sext i32 %21 to i64
  %23 = getelementptr inbounds ptr, ptr %15, i64 %22
  %24 = load ptr, ptr %23, align 8, !tbaa !39
  br label %25

25:                                               ; preds = %12, %11
  %26 = phi ptr [ null, %11 ], [ %24, %12 ]
  ret ptr %26
}

; Function Attrs: inlinehint nounwind uwtable
define internal i32 @Abc_Lit2Var(i32 noundef %0) #4 {
  %2 = alloca i32, align 4
  store i32 %0, ptr %2, align 4, !tbaa !3
  %3 = load i32, ptr %2, align 4, !tbaa !3
  %4 = ashr i32 %3, 1
  ret i32 %4
}

; Function Attrs: nounwind uwtable
define void @Kit_DsdExpandCollectXor_rec(ptr noundef %0, i32 noundef %1, ptr noundef %2, ptr noundef %3) #0 {
  %5 = alloca ptr, align 8
  %6 = alloca i32, align 4
  %7 = alloca ptr, align 8
  %8 = alloca ptr, align 8
  %9 = alloca ptr, align 8
  %10 = alloca i32, align 4
  %11 = alloca i32, align 4
  %12 = alloca i32, align 4
  store ptr %0, ptr %5, align 8, !tbaa !37
  store i32 %1, ptr %6, align 4, !tbaa !3
  store ptr %2, ptr %7, align 8, !tbaa !25
  store ptr %3, ptr %8, align 8, !tbaa !25
  call void @llvm.lifetime.start.p0(i64 8, ptr %9) #9
  call void @llvm.lifetime.start.p0(i64 4, ptr %10) #9
  call void @llvm.lifetime.start.p0(i64 4, ptr %11) #9
  %13 = load ptr, ptr %5, align 8, !tbaa !37
  %14 = load i32, ptr %6, align 4, !tbaa !3
  %15 = call i32 @Abc_Lit2Var(i32 noundef %14)
  %16 = call ptr @Kit_DsdNtkObj(ptr noundef %13, i32 noundef %15)
  store ptr %16, ptr %9, align 8, !tbaa !39
  %17 = load i32, ptr %6, align 4, !tbaa !3
  %18 = call i32 @Abc_Lit2Var(i32 noundef %17)
  %19 = load ptr, ptr %5, align 8, !tbaa !37
  %20 = getelementptr inbounds nuw %struct.Kit_DsdNtk_t_, ptr %19, i32 0, i32 0
  %21 = load i16, ptr %20, align 8, !tbaa !41
  %22 = zext i16 %21 to i32
  %23 = icmp slt i32 %18, %22
  br i1 %23, label %30, label %24

24:                                               ; preds = %4
  %25 = load ptr, ptr %9, align 8, !tbaa !39
  %26 = load i32, ptr %25, align 4
  %27 = lshr i32 %26, 6
  %28 = and i32 %27, 7
  %29 = icmp ne i32 %28, 4
  br i1 %29, label %30, label %38

30:                                               ; preds = %24, %4
  %31 = load i32, ptr %6, align 4, !tbaa !3
  %32 = load ptr, ptr %7, align 8, !tbaa !25
  %33 = load ptr, ptr %8, align 8, !tbaa !25
  %34 = load i32, ptr %33, align 4, !tbaa !3
  %35 = add nsw i32 %34, 1
  store i32 %35, ptr %33, align 4, !tbaa !3
  %36 = sext i32 %34 to i64
  %37 = getelementptr inbounds i32, ptr %32, i64 %36
  store i32 %31, ptr %37, align 4, !tbaa !3
  store i32 1, ptr %12, align 4
  br label %79

38:                                               ; preds = %24
  %39 = load ptr, ptr %5, align 8, !tbaa !37
  %40 = load i32, ptr %6, align 4, !tbaa !3
  %41 = call i32 @Abc_Lit2Var(i32 noundef %40)
  %42 = call ptr @Kit_DsdNtkObj(ptr noundef %39, i32 noundef %41)
  store ptr %42, ptr %9, align 8, !tbaa !39
  store i32 0, ptr %10, align 4, !tbaa !3
  br label %43

43:                                               ; preds = %64, %38
  %44 = load i32, ptr %10, align 4, !tbaa !3
  %45 = load ptr, ptr %9, align 8, !tbaa !39
  %46 = load i32, ptr %45, align 4
  %47 = lshr i32 %46, 26
  %48 = icmp ult i32 %44, %47
  br i1 %48, label %49, label %57

49:                                               ; preds = %43
  %50 = load ptr, ptr %9, align 8, !tbaa !39
  %51 = getelementptr inbounds nuw %struct.Kit_DsdObj_t_, ptr %50, i32 0, i32 1
  %52 = load i32, ptr %10, align 4, !tbaa !3
  %53 = zext i32 %52 to i64
  %54 = getelementptr inbounds nuw [0 x i16], ptr %51, i64 0, i64 %53
  %55 = load i16, ptr %54, align 2, !tbaa !58
  %56 = zext i16 %55 to i32
  store i32 %56, ptr %11, align 4, !tbaa !3
  br label %57

57:                                               ; preds = %49, %43
  %58 = phi i1 [ false, %43 ], [ true, %49 ]
  br i1 %58, label %59, label %67

59:                                               ; preds = %57
  %60 = load ptr, ptr %5, align 8, !tbaa !37
  %61 = load i32, ptr %11, align 4, !tbaa !3
  %62 = load ptr, ptr %7, align 8, !tbaa !25
  %63 = load ptr, ptr %8, align 8, !tbaa !25
  call void @Kit_DsdExpandCollectXor_rec(ptr noundef %60, i32 noundef %61, ptr noundef %62, ptr noundef %63)
  br label %64

64:                                               ; preds = %59
  %65 = load i32, ptr %10, align 4, !tbaa !3
  %66 = add i32 %65, 1
  store i32 %66, ptr %10, align 4, !tbaa !3
  br label %43, !llvm.loop !101

67:                                               ; preds = %57
  %68 = load i32, ptr %6, align 4, !tbaa !3
  %69 = call i32 @Abc_LitIsCompl(i32 noundef %68)
  %70 = icmp ne i32 %69, 0
  br i1 %70, label %71, label %78

71:                                               ; preds = %67
  %72 = load ptr, ptr %7, align 8, !tbaa !25
  %73 = getelementptr inbounds i32, ptr %72, i64 0
  %74 = load i32, ptr %73, align 4, !tbaa !3
  %75 = call i32 @Abc_LitNot(i32 noundef %74)
  %76 = load ptr, ptr %7, align 8, !tbaa !25
  %77 = getelementptr inbounds i32, ptr %76, i64 0
  store i32 %75, ptr %77, align 4, !tbaa !3
  br label %78

78:                                               ; preds = %71, %67
  store i32 0, ptr %12, align 4
  br label %79

79:                                               ; preds = %78, %30
  call void @llvm.lifetime.end.p0(i64 4, ptr %11) #9
  call void @llvm.lifetime.end.p0(i64 4, ptr %10) #9
  call void @llvm.lifetime.end.p0(i64 8, ptr %9) #9
  %80 = load i32, ptr %12, align 4
  switch i32 %80, label %82 [
    i32 0, label %81
    i32 1, label %81
  ]

81:                                               ; preds = %79, %79
  ret void

82:                                               ; preds = %79
  unreachable
}