; Function Attrs: nofree nosync nounwind memory(read, argmem: readwrite, inaccessiblemem: none) uwtable
define void @Kit_DsdExpandCollectXor_rec(ptr noundef readonly captures(none) %0, i32 noundef %1, ptr noundef captures(none) %2, ptr noundef captures(none) %3) local_unnamed_addr #14 {
  %5 = ashr i32 %1, 1
  %6 = load i16, ptr %0, align 8, !tbaa !34
  %7 = zext i16 %6 to i32
  %8 = icmp slt i32 %5, %7
  br i1 %8, label %Kit_DsdNtkObj.exit.thread, label %9

9:                                                ; preds = %4
  %10 = getelementptr inbounds nuw i8, ptr %0, i64 24
  %11 = load ptr, ptr %10, align 8, !tbaa !40
  %12 = sub nsw i32 %5, %7
  %13 = sext i32 %12 to i64
  %14 = getelementptr inbounds ptr, ptr %11, i64 %13
  %15 = load ptr, ptr %14, align 8, !tbaa !41
  %16 = load i32, ptr %15, align 4
  %17 = and i32 %16, 448
  %.not = icmp eq i32 %17, 256
  br i1 %.not, label %Kit_DsdNtkObj.exit22, label %Kit_DsdNtkObj.exit.thread

Kit_DsdNtkObj.exit.thread:                        ; preds = %4, %9
  %18 = load i32, ptr %3, align 4, !tbaa !20
  %19 = add nsw i32 %18, 1
  store i32 %19, ptr %3, align 4, !tbaa !20
  %20 = sext i32 %18 to i64
  %21 = getelementptr inbounds i32, ptr %2, i64 %20
  store i32 %1, ptr %21, align 4, !tbaa !20
  br label %35

Kit_DsdNtkObj.exit22:                             ; preds = %9
  %.not24 = icmp ult i32 %16, 67108864
  br i1 %.not24, label %.critedge, label %.lr.ph

.lr.ph:                                           ; preds = %Kit_DsdNtkObj.exit22
  %22 = getelementptr inbounds nuw i8, ptr %15, i64 4
  br label %23

23:                                               ; preds = %.lr.ph, %23
  %indvars.iv = phi i64 [ 0, %.lr.ph ], [ %indvars.iv.next, %23 ]
  %24 = getelementptr inbounds nuw [0 x i16], ptr %22, i64 0, i64 %indvars.iv
  %25 = load i16, ptr %24, align 2, !tbaa !49
  %26 = zext i16 %25 to i32
  tail call void @Kit_DsdExpandCollectXor_rec(ptr noundef nonnull %0, i32 noundef %26, ptr noundef %2, ptr noundef %3)
  %indvars.iv.next = add nuw nsw i64 %indvars.iv, 1
  %27 = load i32, ptr %15, align 4
  %28 = lshr i32 %27, 26
  %29 = zext nneg i32 %28 to i64
  %30 = icmp samesign ult i64 %indvars.iv.next, %29
  br i1 %30, label %23, label %.critedge, !llvm.loop !92

.critedge:                                        ; preds = %23, %Kit_DsdNtkObj.exit22
  %31 = and i32 %1, 1
  %.not21 = icmp eq i32 %31, 0
  br i1 %.not21, label %35, label %32

32:                                               ; preds = %.critedge
  %33 = load i32, ptr %2, align 4, !tbaa !20
  %34 = xor i32 %33, 1
  store i32 %34, ptr %2, align 4, !tbaa !20
  br label %35

35:                                               ; preds = %.critedge, %32, %Kit_DsdNtkObj.exit.thread
  ret void
}